target datalayout = "e-m:e-p270:32:32-p271:32:32-p272:64:64-i64:64-i128:128-f80:128-n8:16:32:64-S128"
target triple = "x86_64-pc-linux-gnu"

%class.CVQualifiers = type { ptr, i8, i8, %"class.std::vector", %"class.std::vector" }
%"class.std::vector" = type { %"struct.std::_Bvector_base" }
%"struct.std::_Bvector_base" = type { %"struct.std::_Bvector_base<std::allocator<bool>>::_Bvector_impl" }
%"struct.std::_Bvector_base<std::allocator<bool>>::_Bvector_impl" = type { %"struct.std::_Bvector_base<std::allocator<bool>>::_Bvector_impl_data" }
%"struct.std::_Bvector_base<std::allocator<bool>>::_Bvector_impl_data" = type { %"struct.std::_Bit_iterator", %"struct.std::_Bit_iterator", ptr }
%"struct.std::_Bit_iterator" = type { %"struct.std::_Bit_iterator_base.base", [4 x i8] }
%"struct.std::_Bit_iterator_base.base" = type <{ ptr, i32 }>
%class.FactMgr = type { %"class.std::map.12", %"class.std::map.12", %"class.std::map.20", %"class.std::map.20", %"class.std::map.25", %"class.std::map.25", %"class.std::map.30", %"class.std::vector.35", %"class.std::vector.40", ptr }
%"class.std::map.12" = type { %"class.std::_Rb_tree.13" }
%"class.std::_Rb_tree.13" = type { %"struct.std::_Rb_tree<const Statement *, std::pair<const Statement *const, std::vector<const Fact *>>, std::_Select1st<std::pair<const Statement *const, std::vector<const Fact *>>>, std::less<const Statement *>>::_Rb_tree_impl" }
%"struct.std::_Rb_tree<const Statement *, std::pair<const Statement *const, std::vector<const Fact *>>, std::_Select1st<std::pair<const Statement *const, std::vector<const Fact *>>>, std::less<const Statement *>>::_Rb_tree_impl" = type { %"struct.std::_Rb_tree_key_compare.17", %"struct.std::_Rb_tree_header" }
%"struct.std::_Rb_tree_key_compare.17" = type { %"struct.std::less.18" }
%"struct.std::less.18" = type { i8 }
%"struct.std::_Rb_tree_header" = type { %"struct.std::_Rb_tree_node_base", i64 }
%"struct.std::_Rb_tree_node_base" = type { i32, ptr, ptr, ptr }
%"class.std::map.20" = type { %"class.std::_Rb_tree.21" }
%"class.std::_Rb_tree.21" = type { %"struct.std::_Rb_tree<const Statement *, std::pair<const Statement *const, std::vector<Fact *>>, std::_Select1st<std::pair<const Statement *const, std::vector<Fact *>>>, std::less<const Statement *>>::_Rb_tree_impl" }
%"struct.std::_Rb_tree<const Statement *, std::pair<const Statement *const, std::vector<Fact *>>, std::_Select1st<std::pair<const Statement *const, std::vector<Fact *>>>, std::less<const Statement *>>::_Rb_tree_impl" = type { %"struct.std::_Rb_tree_key_compare.17", %"struct.std::_Rb_tree_header" }
%"class.std::map.25" = type { %"class.std::_Rb_tree.26" }
%"class.std::_Rb_tree.26" = type { %"struct.std::_Rb_tree<const Statement *, std::pair<const Statement *const, Effect>, std::_Select1st<std::pair<const Statement *const, Effect>>, std::less<const Statement *>>::_Rb_tree_impl" }
%"struct.std::_Rb_tree<const Statement *, std::pair<const Statement *const, Effect>, std::_Select1st<std::pair<const Statement *const, Effect>>, std::less<const Statement *>>::_Rb_tree_impl" = type { %"struct.std::_Rb_tree_key_compare.17", %"struct.std::_Rb_tree_header" }
%"class.std::map.30" = type { %"class.std::_Rb_tree.31" }
%"class.std::_Rb_tree.31" = type { %"struct.std::_Rb_tree<const Statement *, std::pair<const Statement *const, bool>, std::_Select1st<std::pair<const Statement *const, bool>>, std::less<const Statement *>>::_Rb_tree_impl" }
%"struct.std::_Rb_tree<const Statement *, std::pair<const Statement *const, bool>, std::_Select1st<std::pair<const Statement *const, bool>>, std::less<const Statement *>>::_Rb_tree_impl" = type { %"struct.std::_Rb_tree_key_compare.17", %"struct.std::_Rb_tree_header" }
%"class.std::vector.35" = type { %"struct.std::_Vector_base.36" }
%"struct.std::_Vector_base.36" = type { %"struct.std::_Vector_base<const CFGEdge *, std::allocator<const CFGEdge *>>::_Vector_impl" }
%"struct.std::_Vector_base<const CFGEdge *, std::allocator<const CFGEdge *>>::_Vector_impl" = type { %"struct.std::_Vector_base<const CFGEdge *, std::allocator<const CFGEdge *>>::_Vector_impl_data" }
%"struct.std::_Vector_base<const CFGEdge *, std::allocator<const CFGEdge *>>::_Vector_impl_data" = type { ptr, ptr, ptr }
%"class.std::vector.40" = type { %"struct.std::_Vector_base.41" }
%"struct.std::_Vector_base.41" = type { %"struct.std::_Vector_base<const Fact *, std::allocator<const Fact *>>::_Vector_impl" }
%"struct.std::_Vector_base<const Fact *, std::allocator<const Fact *>>::_Vector_impl" = type { %"struct.std::_Vector_base<const Fact *, std::allocator<const Fact *>>::_Vector_impl_data" }
%"struct.std::_Vector_base<const Fact *, std::allocator<const Fact *>>::_Vector_impl_data" = type { ptr, ptr, ptr }

@_ZN16ExpressionAssignC1EPK15StatementAssign = dso_local unnamed_addr alias void (ptr, ptr), ptr @_ZN16ExpressionAssignC2EPK15StatementAssign

; Function Attrs: mustprogress uwtable
define dso_local noundef ptr @_ZN16ExpressionAssign11make_randomER9CGContextPK4TypePK12CVQualifiers(ptr noundef nonnull align 8 dereferenceable(216) %0, ptr noundef %1, ptr noundef %2) #4 align 2 personality ptr @__gxx_personality_v0 {
  %4 = alloca ptr, align 8
  %5 = alloca ptr, align 8
  %6 = alloca ptr, align 8
  %7 = alloca %class.CVQualifiers, align 8
  %8 = alloca %class.CVQualifiers, align 8
  %9 = alloca ptr, align 8
  %10 = alloca i32, align 4
  %11 = alloca ptr, align 8
  %12 = alloca ptr, align 8
  %13 = alloca ptr, align 8
  store ptr %0, ptr %4, align 8
  store ptr %1, ptr %5, align 8
  store ptr %2, ptr %6, align 8
  call void @_ZN12CVQualifiersC1Ev(ptr noundef nonnull align 8 dereferenceable(96) %7)
  %14 = load ptr, ptr %6, align 8
  %15 = icmp eq ptr %14, null
  br i1 %15, label %16, label %30

16:                                               ; preds = %3
  %17 = load ptr, ptr %5, align 8
  %18 = load ptr, ptr %4, align 8
  invoke void @_ZN12CVQualifiers17random_qualifiersEPK4TypeN6Effect6AccessERK9CGContextb(ptr dead_on_unwind writable sret(%class.CVQualifiers) align 8 %8, ptr noundef %17, i32 noundef 1, ptr noundef nonnull align 8 dereferenceable(216) %18, i1 noundef zeroext true)
          to label %19 unwind label %22

19:                                               ; preds = %16
  %20 = invoke noundef nonnull align 8 dereferenceable(96) ptr @_ZN12CVQualifiersaSERKS_(ptr noundef nonnull align 8 dereferenceable(96) %7, ptr noundef nonnull align 8 dereferenceable(96) %8)
          to label %21 unwind label %26

21:                                               ; preds = %19
  call void @_ZN12CVQualifiersD1Ev(ptr noundef nonnull align 8 dereferenceable(96) %8) #3
  store ptr %7, ptr %6, align 8
  br label %30

22:                                               ; preds = %43, %38, %35, %30, %16
  %23 = landingpad { ptr, i32 }
          cleanup
  %24 = extractvalue { ptr, i32 } %23, 0
  store ptr %24, ptr %9, align 8
  %25 = extractvalue { ptr, i32 } %23, 1
  store i32 %25, ptr %10, align 4
  br label %53

26:                                               ; preds = %19
  %27 = landingpad { ptr, i32 }
          cleanup
  %28 = extractvalue { ptr, i32 } %27, 0
  store ptr %28, ptr %9, align 8
  %29 = extractvalue { ptr, i32 } %27, 1
  store i32 %29, ptr %10, align 4
  call void @_ZN12CVQualifiersD1Ev(ptr noundef nonnull align 8 dereferenceable(96) %8) #3
  br label %53

30:                                               ; preds = %21, %3
  %31 = load ptr, ptr %4, align 8
  %32 = load ptr, ptr %5, align 8
  %33 = load ptr, ptr %6, align 8
  %34 = invoke noundef ptr @_ZN15StatementAssign11make_randomER9CGContextPK4TypePK12CVQualifiers(ptr noundef nonnull align 8 dereferenceable(216) %31, ptr noundef %32, ptr noundef %33)
          to label %35 unwind label %22

35:                                               ; preds = %30
  store ptr %34, ptr %11, align 8
  %36 = load ptr, ptr %4, align 8
  %37 = invoke noundef ptr @_Z12get_fact_mgrPK9CGContext(ptr noundef %36)
          to label %38 unwind label %22

38:                                               ; preds = %35
  store ptr %37, ptr %12, align 8
  %39 = load ptr, ptr %11, align 8
  %40 = load ptr, ptr %12, align 8
  %41 = getelementptr inbounds %class.FactMgr, ptr %40, i32 0, i32 8
  %42 = invoke noundef zeroext i1 @_ZN7FactMgr22update_fact_for_assignEPK15StatementAssignRSt6vectorIPK4FactSaIS6_EE(ptr noundef %39, ptr noundef nonnull align 8 dereferenceable(24) %41)
          to label %43 unwind label %22

43:                                               ; preds = %38
  %44 = invoke noalias noundef nonnull ptr @_Znwm(i64 noundef 32) #12
          to label %45 unwind label %22

45:                                               ; preds = %43
  %46 = load ptr, ptr %11, align 8
  invoke void @_ZN16ExpressionAssignC1EPK15StatementAssign(ptr noundef nonnull align 8 dereferenceable(32) %44, ptr noundef %46)
          to label %47 unwind label %49

47:                                               ; preds = %45
  store ptr %44, ptr %13, align 8
  %48 = load ptr, ptr %13, align 8
  call void @_ZN12CVQualifiersD1Ev(ptr noundef nonnull align 8 dereferenceable(96) %7) #3
  ret ptr %48

49:                                               ; preds = %45
  %50 = landingpad { ptr, i32 }
          cleanup
  %51 = extractvalue { ptr, i32 } %50, 0
  store ptr %51, ptr %9, align 8
  %52 = extractvalue { ptr, i32 } %50, 1
  store i32 %52, ptr %10, align 4
  call void @_ZdlPv(ptr noundef %44) #13
  br label %53

53:                                               ; preds = %49, %26, %22
  call void @_ZN12CVQualifiersD1Ev(ptr noundef nonnull align 8 dereferenceable(96) %7) #3
  br label %54

54:                                               ; preds = %53
  %55 = load ptr, ptr %9, align 8
  %56 = load i32, ptr %10, align 4
  %57 = insertvalue { ptr, i32 } poison, ptr %55, 0
  %58 = insertvalue { ptr, i32 } %57, i32 %56, 1
  resume { ptr, i32 } %58
}