; Function Attrs: mustprogress uwtable
define dso_local noundef nonnull ptr @_ZN16ExpressionAssign11make_randomER9CGContextPK4TypePK12CVQualifiers(ptr noundef nonnull align 8 dereferenceable(216) %0, ptr noundef %1, ptr noundef %2) local_unnamed_addr #3 align 2 personality ptr @__gxx_personality_v0 {
  %4 = alloca %class.CVQualifiers, align 8
  %5 = alloca %class.CVQualifiers, align 8
  call void @_ZN12CVQualifiersC1Ev(ptr noundef nonnull align 8 dereferenceable(96) %4)
  %6 = icmp eq ptr %2, null
  br i1 %6, label %7, label %15

7:                                                ; preds = %3
  invoke void @_ZN12CVQualifiers17random_qualifiersEPK4TypeN6Effect6AccessERK9CGContextb(ptr dead_on_unwind nonnull writable sret(%class.CVQualifiers) align 8 %5, ptr noundef %1, i32 noundef 1, ptr noundef nonnull align 8 dereferenceable(216) %0, i1 noundef zeroext true)
          to label %8 unwind label %11

8:                                                ; preds = %7
  %9 = invoke noundef nonnull align 8 dereferenceable(96) ptr @_ZN12CVQualifiersaSERKS_(ptr noundef nonnull align 8 dereferenceable(96) %4, ptr noundef nonnull align 8 dereferenceable(96) %5)
          to label %10 unwind label %13

10:                                               ; preds = %8
  call void @_ZN12CVQualifiersD1Ev(ptr noundef nonnull align 8 dereferenceable(96) %5) #12
  br label %15

11:                                               ; preds = %22, %19, %17, %15, %7
  %12 = landingpad { ptr, i32 }
          cleanup
  br label %29

13:                                               ; preds = %8
  %14 = landingpad { ptr, i32 }
          cleanup
  call void @_ZN12CVQualifiersD1Ev(ptr noundef nonnull align 8 dereferenceable(96) %5) #12
  br label %29

15:                                               ; preds = %10, %3
  %.0 = phi ptr [ %4, %10 ], [ %2, %3 ]
  %16 = invoke noundef ptr @_ZN15StatementAssign11make_randomER9CGContextPK4TypePK12CVQualifiers(ptr noundef nonnull align 8 dereferenceable(216) %0, ptr noundef %1, ptr noundef nonnull %.0)
          to label %17 unwind label %11

17:                                               ; preds = %15
  %18 = invoke noundef ptr @_Z12get_fact_mgrPK9CGContext(ptr noundef nonnull %0)
          to label %19 unwind label %11

19:                                               ; preds = %17
  %20 = getelementptr inbounds i8, ptr %18, i64 360
  %21 = invoke noundef zeroext i1 @_ZN7FactMgr22update_fact_for_assignEPK15StatementAssignRSt6vectorIPK4FactSaIS6_EE(ptr noundef %16, ptr noundef nonnull align 8 dereferenceable(24) %20)
          to label %22 unwind label %11

22:                                               ; preds = %19
  %23 = invoke noalias noundef nonnull dereferenceable(32) ptr @_Znwm(i64 noundef 32) #13
          to label %24 unwind label %11

24:                                               ; preds = %22
  invoke void @_ZN10ExpressionC2E9eTermType(ptr noundef nonnull align 8 dereferenceable(24) %23, i32 noundef 3)
          to label %25 unwind label %27

25:                                               ; preds = %24
  store ptr getelementptr inbounds ({ [24 x ptr] }, ptr @_ZTV16ExpressionAssign, i64 0, i32 0, i64 2), ptr %23, align 8
  %26 = getelementptr inbounds i8, ptr %23, i64 24
  store ptr %16, ptr %26, align 8
  call void @_ZN12CVQualifiersD1Ev(ptr noundef nonnull align 8 dereferenceable(96) %4) #12
  ret ptr %23

27:                                               ; preds = %24
  %28 = landingpad { ptr, i32 }
          cleanup
  call void @_ZdlPv(ptr noundef nonnull %23) #14
  br label %29

29:                                               ; preds = %27, %13, %11
  %.pn = phi { ptr, i32 } [ %28, %27 ], [ %12, %11 ], [ %14, %13 ]
  call void @_ZN12CVQualifiersD1Ev(ptr noundef nonnull align 8 dereferenceable(96) %4) #12
  resume { ptr, i32 } %.pn
}